target datalayout = "e-m:e-p270:32:32-p271:32:32-p272:64:64-i64:64-i128:128-f80:128-n8:16:32:64-S128"
target triple = "x86_64-pc-linux-gnu"

%struct.Curl_addrinfo = type { i32, i32, i32, i32, i32, ptr, ptr, ptr }
%struct.Curl_sockaddr_ex = type { i32, i32, i32, i32, %union.anon }
%union.anon = type { %struct.Curl_sockaddr_storage }
%struct.Curl_sockaddr_storage = type { %union.anon.0 }
%union.anon.0 = type { %struct.sockaddr_storage }
%struct.sockaddr_storage = type { i16, [118 x i8], i64 }
%struct.curltime = type { i64, i32 }
%struct.cf_socket_ctx = type { i32, %struct.Curl_sockaddr_ex, i32, %struct.bufq, [46 x i8], i32, [46 x i8], i32, %struct.curltime, %struct.curltime, %struct.curltime, i32, i8 }
%struct.bufq = type { ptr, ptr, ptr, ptr, i64, i64, i64, i32 }

@Curl_ccalloc = external global ptr, align 8
@Curl_cfree = external global ptr, align 8

; Function Attrs: nounwind uwtable
define dso_local void @Curl_sock_assign_addr(ptr noundef %0, ptr noundef %1, i32 noundef %2) #0 {
  %4 = alloca ptr, align 8
  %5 = alloca ptr, align 8
  %6 = alloca i32, align 4
  store ptr %0, ptr %4, align 8
  store ptr %1, ptr %5, align 8
  store i32 %2, ptr %6, align 4
  %7 = load ptr, ptr %5, align 8
  %8 = getelementptr inbounds %struct.Curl_addrinfo, ptr %7, i32 0, i32 1
  %9 = load i32, ptr %8, align 4
  %10 = load ptr, ptr %4, align 8
  %11 = getelementptr inbounds %struct.Curl_sockaddr_ex, ptr %10, i32 0, i32 0
  store i32 %9, ptr %11, align 8
  %12 = load i32, ptr %6, align 4
  switch i32 %12, label %23 [
    i32 3, label %13
    i32 6, label %18
  ]

13:                                               ; preds = %3
  %14 = load ptr, ptr %4, align 8
  %15 = getelementptr inbounds %struct.Curl_sockaddr_ex, ptr %14, i32 0, i32 1
  store i32 1, ptr %15, align 4
  %16 = load ptr, ptr %4, align 8
  %17 = getelementptr inbounds %struct.Curl_sockaddr_ex, ptr %16, i32 0, i32 2
  store i32 6, ptr %17, align 8
  br label %28

18:                                               ; preds = %3
  %19 = load ptr, ptr %4, align 8
  %20 = getelementptr inbounds %struct.Curl_sockaddr_ex, ptr %19, i32 0, i32 1
  store i32 1, ptr %20, align 4
  %21 = load ptr, ptr %4, align 8
  %22 = getelementptr inbounds %struct.Curl_sockaddr_ex, ptr %21, i32 0, i32 2
  store i32 0, ptr %22, align 8
  br label %28

23:                                               ; preds = %3
  %24 = load ptr, ptr %4, align 8
  %25 = getelementptr inbounds %struct.Curl_sockaddr_ex, ptr %24, i32 0, i32 1
  store i32 2, ptr %25, align 4
  %26 = load ptr, ptr %4, align 8
  %27 = getelementptr inbounds %struct.Curl_sockaddr_ex, ptr %26, i32 0, i32 2
  store i32 17, ptr %27, align 8
  br label %28

28:                                               ; preds = %23, %18, %13
  %29 = load ptr, ptr %5, align 8
  %30 = getelementptr inbounds %struct.Curl_addrinfo, ptr %29, i32 0, i32 4
  %31 = load i32, ptr %30, align 8
  %32 = load ptr, ptr %4, align 8
  %33 = getelementptr inbounds %struct.Curl_sockaddr_ex, ptr %32, i32 0, i32 3
  store i32 %31, ptr %33, align 4
  %34 = load ptr, ptr %4, align 8
  %35 = getelementptr inbounds %struct.Curl_sockaddr_ex, ptr %34, i32 0, i32 3
  %36 = load i32, ptr %35, align 4
  %37 = zext i32 %36 to i64
  %38 = icmp ugt i64 %37, 128
  br i1 %38, label %39, label %42

39:                                               ; preds = %28
  %40 = load ptr, ptr %4, align 8
  %41 = getelementptr inbounds %struct.Curl_sockaddr_ex, ptr %40, i32 0, i32 3
  store i32 128, ptr %41, align 4
  br label %42

42:                                               ; preds = %39, %28
  %43 = load ptr, ptr %4, align 8
  %44 = getelementptr inbounds %struct.Curl_sockaddr_ex, ptr %43, i32 0, i32 4
  %45 = load ptr, ptr %5, align 8
  %46 = getelementptr inbounds %struct.Curl_addrinfo, ptr %45, i32 0, i32 6
  %47 = load ptr, ptr %46, align 8
  %48 = load ptr, ptr %4, align 8
  %49 = getelementptr inbounds %struct.Curl_sockaddr_ex, ptr %48, i32 0, i32 3
  %50 = load i32, ptr %49, align 4
  %51 = zext i32 %50 to i64
  call void @llvm.memcpy.p0.p0.i64(ptr align 8 %44, ptr align 2 %47, i64 %51, i1 false)
  ret void
}

; Function Attrs: nounwind uwtable
define internal void @cf_socket_ctx_init(ptr noundef %0, ptr noundef %1, i32 noundef %2) #0 {
  %4 = alloca ptr, align 8
  %5 = alloca ptr, align 8
  %6 = alloca i32, align 4
  store ptr %0, ptr %4, align 8
  store ptr %1, ptr %5, align 8
  store i32 %2, ptr %6, align 4
  %7 = load ptr, ptr %4, align 8
  call void @llvm.memset.p0.i64(ptr align 8 %7, i8 0, i64 384, i1 false)
  %8 = load ptr, ptr %4, align 8
  %9 = getelementptr inbounds %struct.cf_socket_ctx, ptr %8, i32 0, i32 2
  store i32 -1, ptr %9, align 8
  %10 = load i32, ptr %6, align 4
  %11 = load ptr, ptr %4, align 8
  %12 = getelementptr inbounds %struct.cf_socket_ctx, ptr %11, i32 0, i32 0
  store i32 %10, ptr %12, align 8
  %13 = load ptr, ptr %4, align 8
  %14 = getelementptr inbounds %struct.cf_socket_ctx, ptr %13, i32 0, i32 1
  %15 = load ptr, ptr %5, align 8
  %16 = load i32, ptr %6, align 4
  call void @Curl_sock_assign_addr(ptr noundef %14, ptr noundef %15, i32 noundef %16)
  %17 = load ptr, ptr %4, align 8
  %18 = getelementptr inbounds %struct.cf_socket_ctx, ptr %17, i32 0, i32 3
  call void @Curl_bufq_init(ptr noundef %18, i64 noundef 65536, i64 noundef 1)
  ret void
}

; Function Attrs: nounwind uwtable
define dso_local i32 @Curl_cf_unix_create(ptr noundef %0, ptr noundef %1, ptr noundef %2, ptr noundef %3, i32 noundef %4) #0 {
  %6 = alloca ptr, align 8
  %7 = alloca ptr, align 8
  %8 = alloca ptr, align 8
  %9 = alloca ptr, align 8
  %10 = alloca i32, align 4
  %11 = alloca ptr, align 8
  %12 = alloca ptr, align 8
  %13 = alloca i32, align 4
  store ptr %0, ptr %6, align 8
  store ptr %1, ptr %7, align 8
  store ptr %2, ptr %8, align 8
  store ptr %3, ptr %9, align 8
  store i32 %4, ptr %10, align 4
  store ptr null, ptr %11, align 8
  store ptr null, ptr %12, align 8
  br label %14

14:                                               ; preds = %5
  br label %15

15:                                               ; preds = %14
  %16 = load ptr, ptr @Curl_ccalloc, align 8
  %17 = call ptr %16(i64 noundef 1, i64 noundef 384)
  store ptr %17, ptr %11, align 8
  %18 = load ptr, ptr %11, align 8
  %19 = icmp ne ptr %18, null
  br i1 %19, label %21, label %20

20:                                               ; preds = %15
  store i32 27, ptr %13, align 4
  br label %27

21:                                               ; preds = %15
  %22 = load ptr, ptr %11, align 8
  %23 = load ptr, ptr %9, align 8
  %24 = load i32, ptr %10, align 4
  call void @cf_socket_ctx_init(ptr noundef %22, ptr noundef %23, i32 noundef %24)
  %25 = load ptr, ptr %11, align 8
  %26 = call i32 @Curl_cf_create(ptr noundef %12, ptr noundef @Curl_cft_unix, ptr noundef %25)
  store i32 %26, ptr %13, align 4
  br label %27

27:                                               ; preds = %21, %20
  %28 = load i32, ptr %13, align 4
  %29 = icmp ne i32 %28, 0
  br i1 %29, label %32, label %30

30:                                               ; preds = %27
  %31 = load ptr, ptr %12, align 8
  br label %33

32:                                               ; preds = %27
  br label %33

33:                                               ; preds = %32, %30
  %34 = phi ptr [ %31, %30 ], [ null, %32 ]
  %35 = load ptr, ptr %6, align 8
  store ptr %34, ptr %35, align 8
  %36 = load i32, ptr %13, align 4
  %37 = icmp ne i32 %36, 0
  br i1 %37, label %38, label %47

38:                                               ; preds = %33
  br label %39

39:                                               ; preds = %38
  %40 = load ptr, ptr @Curl_cfree, align 8
  %41 = load ptr, ptr %12, align 8
  call void %40(ptr noundef %41)
  store ptr null, ptr %12, align 8
  br label %42

42:                                               ; preds = %39
  br label %43

43:                                               ; preds = %42
  %44 = load ptr, ptr @Curl_cfree, align 8
  %45 = load ptr, ptr %11, align 8
  call void %44(ptr noundef %45)
  store ptr null, ptr %11, align 8
  br label %46

46:                                               ; preds = %43
  br label %47

47:                                               ; preds = %46, %33
  %48 = load i32, ptr %13, align 4
  ret i32 %48
}